target datalayout = "e-m:e-p270:32:32-p271:32:32-p272:64:64-i64:64-i128:128-f80:128-n8:16:32:64-S128"
target triple = "x86_64-pc-linux-gnu"

%class.G1ConcurrentMark = type <{ ptr, ptr, %class.G1CMBitMap, %class.MemRegion, %class.G1CMRootMemRegions, %class.G1CMMarkStack, ptr, i32, i32, i32, [4 x i8], ptr, ptr, %class.TaskTerminator, %class.WorkerThreadsBarrierSync, %class.WorkerThreadsBarrierSync, i32, i8, i8, i8, i8, ptr, ptr, %class.NumberSeq, %class.NumberSeq, %class.NumberSeq, %class.NumberSeq, ptr, ptr, i32, i32, ptr, ptr, ptr, i8, [7 x i8] }>
%class.G1CMBitMap = type { %class.MarkBitMap, %class.G1CMBitMapMappingChangedListener }
%class.MarkBitMap = type { ptr, %class.MemRegion, i32, %class.BitMapView }
%class.BitMapView = type { %class.BitMap }
%class.BitMap = type { ptr, i64 }
%class.G1CMBitMapMappingChangedListener = type { %class.G1MappingChangedListener, ptr }
%class.G1MappingChangedListener = type { ptr }
%class.MemRegion = type { ptr, i64 }
%class.G1CMRootMemRegions = type <{ ptr, i64, i64, i64, i8, i8, [6 x i8] }>
%class.G1CMMarkStack = type { %"class.G1CMMarkStack::ChunkAllocator", [128 x i8], ptr, [120 x i8], ptr, i64, [112 x i8] }
%"class.G1CMMarkStack::ChunkAllocator" = type { i64, i64, i64, i64, i8, ptr, [128 x i8], i64, [120 x i8] }
%class.TaskTerminator = type { i32, ptr, [128 x i8], i32, [124 x i8], %class.Monitor, ptr }
%class.Monitor = type { %class.Mutex }
%class.Mutex = type { ptr, %class.PlatformMonitor, ptr }
%class.PlatformMonitor = type { %class.PlatformMutex, %union.pthread_cond_t }
%class.PlatformMutex = type { %union.pthread_mutex_t }
%union.pthread_mutex_t = type { %struct.__pthread_mutex_s }
%struct.__pthread_mutex_s = type { i32, i32, i32, i32, i32, i16, i16, %struct.__pthread_internal_list }
%struct.__pthread_internal_list = type { ptr, ptr }
%union.pthread_cond_t = type { %struct.__pthread_cond_s }
%struct.__pthread_cond_s = type { %union.__atomic_wide_counter, %union.__atomic_wide_counter, [2 x i32], [2 x i32], i32, i32, [2 x i32] }
%union.__atomic_wide_counter = type { i64 }
%class.WorkerThreadsBarrierSync = type <{ %class.Monitor, i32, i32, i8, i8, [6 x i8] }>
%class.NumberSeq = type { %class.AbsSeq, double, double }
%class.AbsSeq = type { ptr, i32, double, double, double, double, double }
%class.SuspendibleThreadSetLeaver = type { i8 }

; Function Attrs: mustprogress nounwind uwtable
define linkonce_odr hidden void @_ZN26SuspendibleThreadSetLeaverD2Ev(ptr noundef nonnull align 1 dereferenceable(1) %0) unnamed_addr #1 comdat align 2 {
  %2 = alloca ptr, align 8
  store ptr %0, ptr %2, align 8
  %3 = load ptr, ptr %2, align 8
  %4 = getelementptr inbounds %class.SuspendibleThreadSetLeaver, ptr %3, i32 0, i32 0
  %5 = load i8, ptr %4, align 1
  %6 = trunc i8 %5 to i1
  br i1 %6, label %7, label %8

7:                                                ; preds = %1
  call void @_ZN20SuspendibleThreadSet4joinEv()
  br label %8

8:                                                ; preds = %7, %1
  ret void
}

; Function Attrs: mustprogress nounwind uwtable
define linkonce_odr hidden void @_ZN26SuspendibleThreadSetLeaverC2Eb(ptr noundef nonnull align 1 dereferenceable(1) %0, i1 noundef zeroext %1) unnamed_addr #1 comdat align 2 {
  %3 = alloca ptr, align 8
  %4 = alloca i8, align 1
  store ptr %0, ptr %3, align 8
  %5 = zext i1 %1 to i8
  store i8 %5, ptr %4, align 1
  %6 = load ptr, ptr %3, align 8
  %7 = getelementptr inbounds %class.SuspendibleThreadSetLeaver, ptr %6, i32 0, i32 0
  %8 = load i8, ptr %4, align 1
  %9 = trunc i8 %8 to i1
  %10 = zext i1 %9 to i8
  store i8 %10, ptr %7, align 1
  %11 = getelementptr inbounds %class.SuspendibleThreadSetLeaver, ptr %6, i32 0, i32 0
  %12 = load i8, ptr %11, align 1
  %13 = trunc i8 %12 to i1
  br i1 %13, label %14, label %15

14:                                               ; preds = %2
  call void @_ZN20SuspendibleThreadSet5leaveEv()
  br label %15

15:                                               ; preds = %14, %2
  ret void
}

; Function Attrs: mustprogress nounwind uwtable
define linkonce_odr hidden noundef zeroext i1 @_ZN16G1ConcurrentMark10concurrentEv(ptr noundef nonnull align 8 dereferenceable(1849) %0) #1 comdat align 2 {
  %2 = alloca ptr, align 8
  store ptr %0, ptr %2, align 8
  %3 = load ptr, ptr %2, align 8
  %4 = getelementptr inbounds %class.G1ConcurrentMark, ptr %3, i32 0, i32 18
  %5 = load volatile i8, ptr %4, align 1
  %6 = trunc i8 %5 to i1
  ret i1 %6
}

; Function Attrs: mustprogress nounwind uwtable
define hidden void @_ZN16G1ConcurrentMark25enter_second_sync_barrierEj(ptr noundef nonnull align 8 dereferenceable(1849) %0, i32 noundef %1) #1 align 2 {
  %3 = alloca ptr, align 8
  %4 = alloca i32, align 4
  %5 = alloca %class.SuspendibleThreadSetLeaver, align 1
  store ptr %0, ptr %3, align 8
  store i32 %1, ptr %4, align 4
  %6 = load ptr, ptr %3, align 8
  %7 = call noundef zeroext i1 @_ZN16G1ConcurrentMark10concurrentEv(ptr noundef nonnull align 8 dereferenceable(1849) %6)
  call void @_ZN26SuspendibleThreadSetLeaverC2Eb(ptr noundef nonnull align 1 dereferenceable(1) %5, i1 noundef zeroext %7)
  %8 = getelementptr inbounds %class.G1ConcurrentMark, ptr %6, i32 0, i32 15
  %9 = call noundef zeroext i1 @_ZN24WorkerThreadsBarrierSync5enterEv(ptr noundef nonnull align 8 dereferenceable(114) %8)
  call void @_ZN26SuspendibleThreadSetLeaverD2Ev(ptr noundef nonnull align 1 dereferenceable(1) %5) #11
  ret void
}